target datalayout = "e-m:e-p270:32:32-p271:32:32-p272:64:64-i64:64-i128:128-f80:128-n8:16:32:64-S128"
target triple = "x86_64-pc-linux-gnu"

%struct.timeval = type { i64, i64 }

@.str.3 = private unnamed_addr constant [22 x i8] c"../qemu/hw/ide/ahci.c\00", align 1
@__func__.ahci_mem_read = private unnamed_addr constant [14 x i8] c"ahci_mem_read\00", align 1
@.str.13 = private unnamed_addr constant [9 x i8] c"size > 1\00", align 1
@trace_events_enabled_count = external global i32, align 4
@message_with_timestamp = external global i8, align 1
@qemu_loglevel = external global i32, align 4
@_TRACE_AHCI_MEM_READ_DSTATE = external global i16, align 2
@.str.58 = private unnamed_addr constant [63 x i8] c"%d@%zu.%06zu:ahci_mem_read ahci(%p): read%u @ 0x%lx: 0x%016lx\0A\00", align 1
@.str.59 = private unnamed_addr constant [50 x i8] c"ahci_mem_read ahci(%p): read%u @ 0x%lx: 0x%016lx\0A\00", align 1

; Function Attrs: inlinehint nounwind sspstrong uwtable
define internal zeroext i1 @qemu_loglevel_mask(i32 noundef %0) #7 {
  %2 = alloca i32, align 4
  store i32 %0, ptr %2, align 4
  %3 = load i32, ptr @qemu_loglevel, align 4
  %4 = load i32, ptr %2, align 4
  %5 = and i32 %3, %4
  %6 = icmp ne i32 %5, 0
  ret i1 %6
}

; Function Attrs: inlinehint nounwind sspstrong uwtable
define internal void @_nocheck__trace_ahci_mem_read(ptr noundef %0, i32 noundef %1, i64 noundef %2, i64 noundef %3) #7 {
  %5 = alloca ptr, align 8
  %6 = alloca i32, align 4
  %7 = alloca i64, align 8
  %8 = alloca i64, align 8
  %9 = alloca %struct.timeval, align 8
  store ptr %0, ptr %5, align 8
  store i32 %1, ptr %6, align 4
  store i64 %2, ptr %7, align 8
  store i64 %3, ptr %8, align 8
  %10 = load i32, ptr @trace_events_enabled_count, align 4
  %11 = icmp ne i32 %10, 0
  %12 = xor i1 %11, true
  %13 = xor i1 %12, true
  %14 = zext i1 %13 to i32
  %15 = sext i32 %14 to i64
  %16 = call i64 @llvm.expect.i64(i64 %15, i64 0)
  %17 = icmp ne i64 %16, 0
  br i1 %17, label %18, label %44

18:                                               ; preds = %4
  %19 = load i16, ptr @_TRACE_AHCI_MEM_READ_DSTATE, align 2
  %20 = zext i16 %19 to i32
  %21 = icmp ne i32 %20, 0
  br i1 %21, label %22, label %44

22:                                               ; preds = %18
  %23 = call zeroext i1 @qemu_loglevel_mask(i32 noundef 32768)
  br i1 %23, label %24, label %44

24:                                               ; preds = %22
  %25 = load i8, ptr @message_with_timestamp, align 1, !range !11, !noundef !12
  %26 = trunc i8 %25 to i1
  br i1 %26, label %27, label %38

27:                                               ; preds = %24
  call void @llvm.lifetime.start.p0(i64 16, ptr %9) #15
  call void @llvm.memset.p0.i64(ptr align 8 %9, i8 0, i64 16, i1 false), !annotation !4
  %28 = call i32 @gettimeofday(ptr noundef %9, ptr noundef null) #15
  %29 = call i32 @qemu_get_thread_id()
  %30 = getelementptr inbounds nuw %struct.timeval, ptr %9, i32 0, i32 0
  %31 = load i64, ptr %30, align 8
  %32 = getelementptr inbounds nuw %struct.timeval, ptr %9, i32 0, i32 1
  %33 = load i64, ptr %32, align 8
  %34 = load ptr, ptr %5, align 8
  %35 = load i32, ptr %6, align 4
  %36 = load i64, ptr %7, align 8
  %37 = load i64, ptr %8, align 8
  call void (ptr, ...) @qemu_log(ptr noundef @.str.58, i32 noundef %29, i64 noundef %31, i64 noundef %33, ptr noundef %34, i32 noundef %35, i64 noundef %36, i64 noundef %37)
  call void @llvm.lifetime.end.p0(i64 16, ptr %9) #15
  br label %43

38:                                               ; preds = %24
  %39 = load ptr, ptr %5, align 8
  %40 = load i32, ptr %6, align 4
  %41 = load i64, ptr %7, align 8
  %42 = load i64, ptr %8, align 8
  call void (ptr, ...) @qemu_log(ptr noundef @.str.59, ptr noundef %39, i32 noundef %40, i64 noundef %41, i64 noundef %42)
  br label %43

43:                                               ; preds = %38, %27
  br label %44

44:                                               ; preds = %43, %22, %18, %4
  ret void
}

; Function Attrs: inlinehint nounwind sspstrong uwtable
define internal void @trace_ahci_mem_read(ptr noundef %0, i32 noundef %1, i64 noundef %2, i64 noundef %3) #7 {
  %5 = alloca ptr, align 8
  %6 = alloca i32, align 4
  %7 = alloca i64, align 8
  %8 = alloca i64, align 8
  store ptr %0, ptr %5, align 8
  store i32 %1, ptr %6, align 4
  store i64 %2, ptr %7, align 8
  store i64 %3, ptr %8, align 8
  %9 = load ptr, ptr %5, align 8
  %10 = load i32, ptr %6, align 4
  %11 = load i64, ptr %7, align 8
  %12 = load i64, ptr %8, align 8
  call void @_nocheck__trace_ahci_mem_read(ptr noundef %9, i32 noundef %10, i64 noundef %11, i64 noundef %12)
  ret void
}

; Function Attrs: nounwind sspstrong uwtable
define internal i64 @ahci_mem_read(ptr noundef %0, i64 noundef %1, i32 noundef %2) #0 {
  %4 = alloca ptr, align 8
  %5 = alloca i64, align 8
  %6 = alloca i32, align 4
  %7 = alloca i64, align 8
  %8 = alloca i32, align 4
  %9 = alloca i64, align 8
  %10 = alloca i64, align 8
  %11 = alloca i64, align 8
  %12 = alloca i32, align 4
  %13 = alloca i32, align 4
  store ptr %0, ptr %4, align 8
  store i64 %1, ptr %5, align 8
  store i32 %2, ptr %6, align 4
  call void @llvm.lifetime.start.p0(i64 8, ptr %7) #15
  %14 = load i64, ptr %5, align 8
  %15 = and i64 %14, -4
  store i64 %15, ptr %7, align 8
  call void @llvm.lifetime.start.p0(i64 4, ptr %8) #15
  %16 = load i64, ptr %5, align 8
  %17 = load i64, ptr %7, align 8
  %18 = sub i64 %16, %17
  %19 = trunc i64 %18 to i32
  store i32 %19, ptr %8, align 4
  call void @llvm.lifetime.start.p0(i64 8, ptr %9) #15
  %20 = load ptr, ptr %4, align 8
  %21 = load i64, ptr %7, align 8
  %22 = call i64 @ahci_mem_read_32(ptr noundef %20, i64 noundef %21)
  store i64 %22, ptr %9, align 8
  call void @llvm.lifetime.start.p0(i64 8, ptr %10) #15
  store i64 0, ptr %10, align 8, !annotation !4
  call void @llvm.lifetime.start.p0(i64 8, ptr %11) #15
  store i64 0, ptr %11, align 8, !annotation !4
  %23 = load i32, ptr %8, align 4
  %24 = load i32, ptr %6, align 4
  %25 = add i32 %23, %24
  %26 = icmp ule i32 %25, 4
  br i1 %26, label %27, label %33

27:                                               ; preds = %3
  %28 = load i64, ptr %9, align 8
  %29 = load i32, ptr %8, align 4
  %30 = mul i32 %29, 8
  %31 = zext i32 %30 to i64
  %32 = lshr i64 %28, %31
  store i64 %32, ptr %11, align 8
  br label %62

33:                                               ; preds = %3
  br label %34

34:                                               ; preds = %33
  call void @llvm.lifetime.start.p0(i64 4, ptr %12) #15
  store i32 0, ptr %12, align 4, !annotation !4
  %35 = load i32, ptr %6, align 4
  %36 = icmp ugt i32 %35, 1
  br i1 %36, label %37, label %38

37:                                               ; preds = %34
  store i32 1, ptr %12, align 4
  br label %39

38:                                               ; preds = %34
  store i32 0, ptr %12, align 4
  br label %39

39:                                               ; preds = %38, %37
  %40 = load i32, ptr %12, align 4
  store i32 %40, ptr %13, align 4
  call void @llvm.lifetime.end.p0(i64 4, ptr %12) #15
  %41 = load i32, ptr %13, align 4
  %42 = sext i32 %41 to i64
  %43 = call i64 @llvm.expect.i64(i64 %42, i64 1)
  %44 = icmp ne i64 %43, 0
  br i1 %44, label %45, label %46

45:                                               ; preds = %39
  br label %47

46:                                               ; preds = %39
  call void @g_assertion_message_expr(ptr noundef null, ptr noundef @.str.3, i32 noundef 423, ptr noundef @__func__.ahci_mem_read, ptr noundef @.str.13) #19
  unreachable

47:                                               ; preds = %45
  br label %48

48:                                               ; preds = %47
  br label %49

49:                                               ; preds = %48
  %50 = load ptr, ptr %4, align 8
  %51 = load i64, ptr %7, align 8
  %52 = add i64 %51, 4
  %53 = call i64 @ahci_mem_read_32(ptr noundef %50, i64 noundef %52)
  store i64 %53, ptr %10, align 8
  %54 = load i64, ptr %10, align 8
  %55 = shl i64 %54, 32
  %56 = load i64, ptr %9, align 8
  %57 = or i64 %55, %56
  %58 = load i32, ptr %8, align 4
  %59 = mul i32 %58, 8
  %60 = zext i32 %59 to i64
  %61 = lshr i64 %57, %60
  store i64 %61, ptr %11, align 8
  br label %62

62:                                               ; preds = %49, %27
  %63 = load ptr, ptr %4, align 8
  %64 = load i32, ptr %6, align 4
  %65 = load i64, ptr %5, align 8
  %66 = load i64, ptr %11, align 8
  call void @trace_ahci_mem_read(ptr noundef %63, i32 noundef %64, i64 noundef %65, i64 noundef %66)
  %67 = load i64, ptr %11, align 8
  call void @llvm.lifetime.end.p0(i64 8, ptr %11) #15
  call void @llvm.lifetime.end.p0(i64 8, ptr %10) #15
  call void @llvm.lifetime.end.p0(i64 8, ptr %9) #15
  call void @llvm.lifetime.end.p0(i64 4, ptr %8) #15
  call void @llvm.lifetime.end.p0(i64 8, ptr %7) #15
  ret i64 %67
}