; Function Attrs: nounwind sspstrong uwtable
define internal i64 @ahci_mem_read(ptr noundef %0, i64 noundef %1, i32 noundef %2) #0 {
  %4 = alloca %struct.timeval, align 8
  %5 = and i64 %1, -4
  %6 = trunc i64 %1 to i32
  %7 = and i32 %6, 3
  %8 = tail call fastcc i64 @ahci_mem_read_32(ptr noundef %0, i64 noundef %5)
  %9 = add i32 %7, %2
  %10 = icmp ult i32 %9, 5
  br i1 %10, label %19, label %11

11:                                               ; preds = %3
  %12 = icmp ult i32 %2, 2
  br i1 %12, label %13, label %14, !prof !17

13:                                               ; preds = %11
  tail call void @g_assertion_message_expr(ptr noundef null, ptr noundef nonnull @.str.3, i32 noundef 423, ptr noundef nonnull @__func__.ahci_mem_read, ptr noundef nonnull @.str.13) #15
  unreachable

14:                                               ; preds = %11
  %15 = add i64 %5, 4
  %16 = tail call fastcc i64 @ahci_mem_read_32(ptr noundef %0, i64 noundef %15)
  %17 = shl nuw i64 %16, 32
  %18 = or disjoint i64 %17, %8
  br label %19

19:                                               ; preds = %3, %14
  %.sink = phi i64 [ %18, %14 ], [ %8, %3 ]
  %20 = shl nuw nsw i32 %7, 3
  %21 = zext nneg i32 %20 to i64
  %22 = lshr i64 %.sink, %21
  %23 = load i32, ptr @trace_events_enabled_count, align 4
  %.not.i.i = icmp eq i32 %23, 0
  br i1 %.not.i.i, label %trace_ahci_mem_read.exit, label %24, !prof !7

24:                                               ; preds = %19
  %25 = load i16, ptr @_TRACE_AHCI_MEM_READ_DSTATE, align 2
  %.not7.i.i = icmp eq i16 %25, 0
  br i1 %.not7.i.i, label %trace_ahci_mem_read.exit, label %26

26:                                               ; preds = %24
  %27 = load i32, ptr @qemu_loglevel, align 4
  %28 = and i32 %27, 32768
  %.not8.i.i = icmp eq i32 %28, 0
  br i1 %.not8.i.i, label %trace_ahci_mem_read.exit, label %29

29:                                               ; preds = %26
  %30 = load i8, ptr @message_with_timestamp, align 1, !range !9, !noundef !10
  %31 = trunc nuw i8 %30 to i1
  br i1 %31, label %32, label %38

32:                                               ; preds = %29
  call void @llvm.lifetime.start.p0(i64 16, ptr nonnull %4) #14
  call void @llvm.memset.p0.i64(ptr noundef nonnull align 8 dereferenceable(16) %4, i8 0, i64 16, i1 false), !annotation !11
  %33 = call i32 @gettimeofday(ptr noundef nonnull %4, ptr noundef null) #14
  %34 = tail call i32 @qemu_get_thread_id() #14
  %35 = load i64, ptr %4, align 8
  %36 = getelementptr inbounds nuw i8, ptr %4, i64 8
  %37 = load i64, ptr %36, align 8
  tail call void (ptr, ...) @qemu_log(ptr noundef nonnull @.str.58, i32 noundef %34, i64 noundef %35, i64 noundef %37, ptr noundef %0, i32 noundef %2, i64 noundef %1, i64 noundef %22) #14
  call void @llvm.lifetime.end.p0(i64 16, ptr nonnull %4) #14
  br label %trace_ahci_mem_read.exit

38:                                               ; preds = %29
  tail call void (ptr, ...) @qemu_log(ptr noundef nonnull @.str.59, ptr noundef %0, i32 noundef %2, i64 noundef %1, i64 noundef %22) #14
  br label %trace_ahci_mem_read.exit

trace_ahci_mem_read.exit:                         ; preds = %19, %24, %26, %32, %38
  ret i64 %22
}